Certificate:
    Data:
        Version: 3 (0x2)
        Serial Number: 1 (0x1)
    Signature Algorithm: sha256WithRSAEncryption
        Issuer: C=ES, ST=Madrid, L=Madrid, CN=ca.uam.es
        Validity
            Not Before: May  1 10:32:52 2016 GMT
            Not After : May  1 10:32:52 2017 GMT
        Subject: C=ES, ST=Madrid, O=UAM, OU=EPS, CN=client.uam.es
        Subject Public Key Info:
            Public Key Algorithm: rsaEncryption
                Public-Key: (2048 bit)
                Modulus:
                    00:be:48:e6:76:59:d7:a9:23:54:f8:59:2d:23:87:
                    47:c3:77:07:97:99:18:d8:14:69:de:8f:7e:54:5d:
                    c5:c0:c3:5d:9f:d1:e9:8d:3a:b2:f6:42:64:16:fa:
                    e8:b9:3e:de:84:df:7f:b3:b7:f0:d3:69:89:fc:b5:
                    ca:80:08:d1:2f:8f:8a:df:64:77:fe:f0:c6:a9:d3:
                    3e:e2:3d:6f:b3:c5:a7:8e:9e:70:dc:34:db:97:bb:
                    8a:0e:01:d0:09:1e:e1:0d:53:6d:3e:74:7e:9d:89:
                    06:c7:2f:d0:24:71:c3:78:71:9b:18:a3:c2:5e:e6:
                    bf:a8:40:c4:6a:d7:5f:cc:cd:ee:64:45:3e:86:09:
                    14:c9:39:c9:78:20:6f:4e:39:58:95:41:42:6b:43:
                    c5:c6:d6:93:68:b8:7a:05:4b:7f:15:91:6b:43:7c:
                    63:21:a4:d1:81:92:35:dd:c5:5f:bf:f4:1c:8c:53:
                    e3:07:bb:70:9f:d1:88:67:93:08:a8:92:08:c7:e8:
                    e9:2e:94:73:1c:ac:ef:c2:1d:ea:bc:5c:b9:bb:ca:
                    64:7b:99:40:29:f4:5f:9f:03:7e:26:0b:77:a2:b6:
                    05:83:0d:48:f3:b1:65:5b:d7:c5:75:d7:f4:6c:d0:
                    78:b0:47:3a:e4:d1:8b:2e:67:8f:ed:a9:28:3f:4c:
                    68:45
                Exponent: 65537 (0x10001)
        X509v3 extensions:
            X509v3 Basic Constraints: 
                CA:FALSE
            Netscape Comment: 
                OpenSSL Generated Certificate
            X509v3 Subject Key Identifier: 
                D3:E4:A3:30:87:16:79:51:AE:34:DC:33:F4:B7:BE:94:F7:EB:85:C6
            X509v3 Authority Key Identifier: 
                keyid:3C:67:1F:6B:E5:C9:01:48:F3:21:EA:65:CE:1E:2D:31:8C:57:F2:7F

    Signature Algorithm: sha256WithRSAEncryption
         28:40:61:9f:a2:7a:85:df:97:bd:66:de:33:e6:9a:fb:11:61:
         6d:63:b2:64:c0:38:db:c9:48:9e:0a:69:e7:23:53:91:d4:13:
         be:d0:e0:e3:f6:9f:e6:79:c9:ba:4c:57:e3:65:79:58:4c:09:
         2e:bf:a7:4e:65:c9:01:58:b3:7c:87:c7:6c:9f:b7:33:4c:cd:
         b1:0c:22:d8:47:95:ea:6c:ac:1e:2e:b7:e2:2a:d1:ed:b5:0c:
         16:67:27:05:00:2e:49:45:78:d5:f8:75:0d:3e:48:1e:39:02:
         d4:f9:6a:f0:1a:94:f5:d2:64:36:04:72:98:a8:ee:2b:ad:db:
         93:bf:8b:f3:20:2d:a4:c8:24:7c:eb:50:46:56:ec:5c:a2:70:
         41:7f:45:10:10:e3:63:d9:46:67:ec:24:3d:ca:9d:2d:17:2b:
         b8:01:0f:d0:e7:ff:e0:79:99:b9:1b:4d:7b:db:44:4a:a4:f0:
         45:b6:f7:31:78:07:03:0e:1b:7b:91:69:4c:de:9b:80:02:f3:
         a5:ed:82:b5:70:e0:6a:8c:de:c5:ac:b7:e3:10:dd:b2:09:38:
         c3:01:64:96:58:a0:5b:3e:63:fc:6e:90:22:17:d3:0a:e7:23:
         e3:ec:5c:9b:3d:3e:aa:74:3f:5f:04:26:5e:95:db:29:5d:bc:
         55:2f:89:37
-----BEGIN CERTIFICATE-----
MIIDizCCAnOgAwIBAgIBATANBgkqhkiG9w0BAQsFADBDMQswCQYDVQQGEwJFUzEP
MA0GA1UECAwGTWFkcmlkMQ8wDQYDVQQHDAZNYWRyaWQxEjAQBgNVBAMMCWNhLnVh
bS5lczAeFw0xNjA1MDExMDMyNTJaFw0xNzA1MDExMDMyNTJaMFIxCzAJBgNVBAYT
AkVTMQ8wDQYDVQQIDAZNYWRyaWQxDDAKBgNVBAoMA1VBTTEMMAoGA1UECwwDRVBT
MRYwFAYDVQQDDA1jbGllbnQudWFtLmVzMIIBIjANBgkqhkiG9w0BAQEFAAOCAQ8A
MIIBCgKCAQEAvkjmdlnXqSNU+FktI4dHw3cHl5kY2BRp3o9+VF3FwMNdn9HpjTqy
9kJkFvrouT7ehN9/s7fw02mJ/LXKgAjRL4+K32R3/vDGqdM+4j1vs8Wnjp5w3DTb
l7uKDgHQCR7hDVNtPnR+nYkGxy/QJHHDeHGbGKPCXua/qEDEatdfzM3uZEU+hgkU
yTnJeCBvTjlYlUFCa0PFxtaTaLh6BUt/FZFrQ3xjIaTRgZI13cVfv/QcjFPjB7tw
n9GIZ5MIqJIIx+jpLpRzHKzvwh3qvFy5u8pke5lAKfRfnwN+Jgt3orYFgw1I87Fl
W9fFddf0bNB4sEc65NGLLmeP7akoP0xoRQIDAQABo3sweTAJBgNVHRMEAjAAMCwG
CWCGSAGG+EIBDQQfFh1PcGVuU1NMIEdlbmVyYXRlZCBDZXJ0aWZpY2F0ZTAdBgNV
HQ4EFgQU0+SjMIcWeVGuNNwz9Le+lPfrhcYwHwYDVR0jBBgwFoAUPGcfa+XJAUjz
Ieplzh4tMYxX8n8wDQYJKoZIhvcNAQELBQADggEBAChAYZ+ieoXfl71m3jPmmvsR
YW1jsmTAONvJSJ4KaecjU5HUE77Q4OP2n+Z5ybpMV+NleVhMCS6/p05lyQFYs3yH
x2yftzNMzbEMIthHlepsrB4ut+Iq0e21DBZnJwUALklFeNX4dQ0+SB45AtT5avAa
lPXSZDYEcpio7iut25O/i/MgLaTIJHzrUEZW7FyicEF/RRAQ42PZRmfsJD3KnS0X
K7gBD9Dn/+B5mbkbTXvbREqk8EW29zF4BwMOG3uRaUzem4AC86XtgrVw4GqM3sWs
t+MQ3bIJOMMBZJZYoFs+Y/xukCIX0wrnI+PsXJs9Pqp0P18EJl6V2yldvFUviTc=
-----END CERTIFICATE-----
-----BEGIN PRIVATE KEY-----
MIIEvgIBADANBgkqhkiG9w0BAQEFAASCBKgwggSkAgEAAoIBAQC+SOZ2WdepI1T4
WS0jh0fDdweXmRjYFGnej35UXcXAw12f0emNOrL2QmQW+ui5Pt6E33+zt/DTaYn8
tcqACNEvj4rfZHf+8Map0z7iPW+zxaeOnnDcNNuXu4oOAdAJHuENU20+dH6diQbH
L9AkccN4cZsYo8Je5r+oQMRq11/Mze5kRT6GCRTJOcl4IG9OOViVQUJrQ8XG1pNo
uHoFS38VkWtDfGMhpNGBkjXdxV+/9ByMU+MHu3Cf0YhnkwiokgjH6OkulHMcrO/C
Heq8XLm7ymR7mUAp9F+fA34mC3eitgWDDUjzsWVb18V11/Rs0HiwRzrk0YsuZ4/t
qSg/TGhFAgMBAAECggEAOe4Xu5A+h8+p3rHHfDmDL47dUNnbJm2QjaFB5I1n1vej
WTSe1dA5C5/KuPRKRZtOQ0WHqz8kojhPOhBeRfxpMwGQVdJQddz3nlwhmN77Us+p
41F5KpEtCVSfAwSqQRyVh2kOqSTuJyfAWIPF6lJ4IAL2JNo2Io49awvMwHoxQDgq
jKTuA3ECoiZlEnNnCgKOZafqro2OeJ7LlxnsuoQeYusZTPBh7AHJkc1tWLUIBJoS
Zi8HEu82Qhw4e4Z3mHnd3r9hJpnSjfO2Z+4p4VQyGkIkOXo3E40dSk45o2DPdqPv
6x+k3Q+NZRUgb3hqyWxZMdAxOXfVMbJ3rJEdUxguAQKBgQDyuotjsJfYtcn55WtH
WhWMRo1sFDve7YmQBPZqaKJ23L1m/WDO9fpVW4gwcOoPO5y5wNgL3yxfHetxtrSA
n0tIB+xKDHSC9c4ZGzfuxRdtVrZ5Mv2RnvbcjioIqx9JIU+1PK9dawCO9/6WQUhp
AhWnHNIbKiqlG3EZU3BH4a+/DQKBgQDIsE1S0pSsIAyP0Z+vEci+26hWJ4Cm7G2Z
yyehuS9ideI6+99xUS/aiYQuZ7Ghe+XE6+bVSR6nw8QUVVJ7UleBaMXPTOPgCgyQ
FlBNeT7j67IDkHsIfWMe/jmwyggQpHYJdgAZ+O3hapc28oxVZrzWhtBwsh5lcEXK
lFx4bv3AGQKBgArIDG72JhiDIqCN9zDpKHHdpGR7lZk2Vdjmz4c0dJrw/Ry4/nbS
6DaoZSk5qrvYewKpNS95zz++VXnskqHv8WkWqQE1AmvavTfSRK6/ZGX/5wUFJcw1
EmQDkIxoBXC7IQ48ztFIcnLnQxCrf6riY9HTbuWz/sbsrB5i3Wbj+Gl1AoGBALs5
XqmpsvFxZMa3NVXKLZGAsubNK4SOhSE5GdwSO1aLy2Zjm+zHZPFn4Vy5eEnCoHS5
7zuDX4n7ZG3ju3M5OlGMQR5ICT71oQq7BmeAeV+Afy48F8uvzk0XtxJrKGL+SvBA
mY+hX6swGao1VR5HHly0oLjCMwFHYJTBHBNu2GPhAoGBAJ7lGpeSEssibeipE+QK
e+evxqJROs7CYKXJDLT6Cb+HLXqeU5KWx4na0aynqNH6eVN6l+/or5ymM30cQUTF
FhH8oFRf2qeO1fqkaIasVYitL6yj/ojt97tgjVvBa6Qh7C8qzjnAFEe70WSw4MfZ
jMvFFBr3i/ORdEWKDJpoiyA5
-----END PRIVATE KEY-----
