Certificate:
    Data:
        Version: 3 (0x2)
        Serial Number: 2 (0x2)
    Signature Algorithm: sha256WithRSAEncryption
        Issuer: C=ES, ST=Madrid, L=Madrid, CN=ca.uam.es
        Validity
            Not Before: Apr 28 22:53:32 2016 GMT
            Not After : Apr 28 22:53:32 2017 GMT
        Subject: C=ES, ST=Madrid, O=UAM, OU=EPS, CN=client.uam.es
        Subject Public Key Info:
            Public Key Algorithm: rsaEncryption
                Public-Key: (2048 bit)
                Modulus:
                    00:fa:4f:71:8a:07:0b:e7:16:b1:a5:69:0b:9f:19:
                    1e:c1:28:31:ac:24:88:4f:82:70:6c:a2:8c:f3:30:
                    e6:72:6b:3b:a9:2e:1a:b1:62:d9:ea:db:4a:1f:73:
                    53:bc:05:80:8f:48:95:64:71:70:a6:9f:eb:21:eb:
                    04:2e:6b:a8:05:7a:b2:4f:62:33:b8:30:2a:7d:9b:
                    bd:99:36:c1:d8:67:e7:df:17:00:35:d7:1f:3b:81:
                    38:32:cf:59:8e:b4:56:b5:33:f5:8a:26:5a:e6:a6:
                    40:cb:ad:07:f6:7c:af:7e:ef:8d:e6:2d:ca:d0:70:
                    81:1a:e0:4e:d3:e1:53:44:4b:aa:c8:85:f2:03:be:
                    c4:42:df:b2:e3:a2:89:64:0f:e8:f0:0c:92:b4:94:
                    ba:9c:ac:5d:a0:02:96:96:5a:c1:dc:eb:c1:8f:49:
                    44:27:bd:1c:08:00:11:80:ae:3a:2d:23:82:df:47:
                    ff:6b:f5:c8:c4:a6:44:af:3b:f4:69:b2:63:75:37:
                    ec:eb:2d:38:35:13:f3:c9:61:28:c9:4e:5c:44:23:
                    29:55:bb:1b:0d:44:93:fc:45:5b:a5:7b:15:a8:b9:
                    74:d8:84:6d:2e:34:fd:bf:0d:48:62:7e:e5:e9:3c:
                    23:f9:a7:89:8b:ed:15:bd:64:29:b9:51:86:db:34:
                    3c:4d
                Exponent: 65537 (0x10001)
        X509v3 extensions:
            X509v3 Basic Constraints: 
                CA:FALSE
            Netscape Comment: 
                OpenSSL Generated Certificate
            X509v3 Subject Key Identifier: 
                5C:05:24:82:71:65:4B:59:BE:1F:23:F1:98:9B:76:89:48:3C:03:88
            X509v3 Authority Key Identifier: 
                keyid:B9:05:CE:A5:CF:F7:E4:39:AD:23:29:86:2D:50:D4:52:6D:A2:EF:4B

    Signature Algorithm: sha256WithRSAEncryption
         7c:f3:64:0e:78:35:86:40:79:5f:b5:3e:76:c3:57:75:c9:ec:
         60:cc:9b:be:c6:10:cc:a9:9f:21:46:bd:46:ed:6d:72:51:23:
         94:90:2a:2f:c2:d0:12:eb:40:51:b7:9c:9a:d2:c3:f0:49:e1:
         0f:a5:85:d9:b1:1d:c1:c0:61:6a:6e:9d:65:56:c1:b5:80:4e:
         e0:4f:19:d3:63:9e:57:4e:d9:e5:0e:e6:e2:b2:25:34:36:88:
         d8:bb:3e:0f:97:bb:07:f8:32:02:87:4a:2c:b2:93:59:ad:b1:
         2f:4c:39:f3:7a:4b:3b:d4:ff:b8:8c:60:56:45:6b:95:07:ce:
         34:61:e4:d9:fe:65:cb:50:c4:1b:42:3d:64:8d:37:f2:cd:e8:
         5c:27:04:c7:38:2e:54:4a:6f:ce:ec:e3:68:34:ec:1d:fc:a0:
         22:08:fb:ea:1d:c2:b7:f3:35:96:40:18:40:e1:c7:90:fa:3c:
         ff:3f:53:a0:d2:8f:db:d7:5f:3c:7c:0d:51:41:02:82:2a:2d:
         f0:a5:35:61:28:f1:d1:19:08:0f:eb:07:61:0d:cd:ab:5a:55:
         ae:16:ad:0e:81:b7:f9:f1:6d:9f:a5:ea:62:a3:ef:a2:8f:0a:
         83:77:50:9e:41:b6:b0:00:ac:1f:66:10:58:8a:16:16:f8:4b:
         83:9c:73:ca
-----BEGIN CERTIFICATE-----
MIIDizCCAnOgAwIBAgIBAjANBgkqhkiG9w0BAQsFADBDMQswCQYDVQQGEwJFUzEP
MA0GA1UECAwGTWFkcmlkMQ8wDQYDVQQHDAZNYWRyaWQxEjAQBgNVBAMMCWNhLnVh
bS5lczAeFw0xNjA0MjgyMjUzMzJaFw0xNzA0MjgyMjUzMzJaMFIxCzAJBgNVBAYT
AkVTMQ8wDQYDVQQIDAZNYWRyaWQxDDAKBgNVBAoMA1VBTTEMMAoGA1UECwwDRVBT
MRYwFAYDVQQDDA1jbGllbnQudWFtLmVzMIIBIjANBgkqhkiG9w0BAQEFAAOCAQ8A
MIIBCgKCAQEA+k9xigcL5xaxpWkLnxkewSgxrCSIT4JwbKKM8zDmcms7qS4asWLZ
6ttKH3NTvAWAj0iVZHFwpp/rIesELmuoBXqyT2IzuDAqfZu9mTbB2Gfn3xcANdcf
O4E4Ms9ZjrRWtTP1iiZa5qZAy60H9nyvfu+N5i3K0HCBGuBO0+FTREuqyIXyA77E
Qt+y46KJZA/o8AyStJS6nKxdoAKWllrB3OvBj0lEJ70cCAARgK46LSOC30f/a/XI
xKZErzv0abJjdTfs6y04NRPzyWEoyU5cRCMpVbsbDUST/EVbpXsVqLl02IRtLjT9
vw1IYn7l6Twj+aeJi+0VvWQpuVGG2zQ8TQIDAQABo3sweTAJBgNVHRMEAjAAMCwG
CWCGSAGG+EIBDQQfFh1PcGVuU1NMIEdlbmVyYXRlZCBDZXJ0aWZpY2F0ZTAdBgNV
HQ4EFgQUXAUkgnFlS1m+HyPxmJt2iUg8A4gwHwYDVR0jBBgwFoAUuQXOpc/35Dmt
IymGLVDUUm2i70swDQYJKoZIhvcNAQELBQADggEBAHzzZA54NYZAeV+1PnbDV3XJ
7GDMm77GEMypnyFGvUbtbXJRI5SQKi/C0BLrQFG3nJrSw/BJ4Q+lhdmxHcHAYWpu
nWVWwbWATuBPGdNjnldO2eUO5uKyJTQ2iNi7Pg+Xuwf4MgKHSiyyk1mtsS9MOfN6
SzvU/7iMYFZFa5UHzjRh5Nn+ZctQxBtCPWSNN/LN6FwnBMc4LlRKb87s42g07B38
oCII++odwrfzNZZAGEDhx5D6PP8/U6DSj9vXXzx8DVFBAoIqLfClNWEo8dEZCA/r
B2ENzataVa4WrQ6Bt/nxbZ+l6mKj76KPCoN3UJ5BtrAArB9mEFiKFhb4S4Occ8o=
-----END CERTIFICATE-----
-----BEGIN PRIVATE KEY-----
MIIEvwIBADANBgkqhkiG9w0BAQEFAASCBKkwggSlAgEAAoIBAQD6T3GKBwvnFrGl
aQufGR7BKDGsJIhPgnBsoozzMOZyazupLhqxYtnq20ofc1O8BYCPSJVkcXCmn+sh
6wQua6gFerJPYjO4MCp9m72ZNsHYZ+ffFwA11x87gTgyz1mOtFa1M/WKJlrmpkDL
rQf2fK9+743mLcrQcIEa4E7T4VNES6rIhfIDvsRC37LjoolkD+jwDJK0lLqcrF2g
ApaWWsHc68GPSUQnvRwIABGArjotI4LfR/9r9cjEpkSvO/RpsmN1N+zrLTg1E/PJ
YSjJTlxEIylVuxsNRJP8RVulexWouXTYhG0uNP2/DUhifuXpPCP5p4mL7RW9ZCm5
UYbbNDxNAgMBAAECggEBAO7bJFM8SiVoSHi5dreJNwnHGy9TZSfKJxHjQ3FFdoI0
xae5MQuYcq5kN6UvXfYLohQYhUZl4cN+0td49nJ9lMY1wTVzVjsq60EVfqVX1T52
WJNP1YmLEGit9Dy4FJPSjvM289WyqAd1GlvBb9nMPYN5gQTnKaQh13EYHuCdIeIG
F3+qTRcJTT2xsxcXC5edcieUWWwjqnmbIu6xk8ZgCIpYyOJMWRTsvYvqI3kDrO/4
XKjrZejv6FGejPJFlMXDs1NpvOkdF/OzXt3iUrEY+u3/sGxYtBlZQzb88qeKqjG6
qY0LFJXgH/Zo2gNEn5Z3/qn5fKDBlKVhilDN2Kn5MlkCgYEA/r5gEVDlhZTWRDw+
eprw9zmdn2nXD7QWIdjsd3H8bUYF9szNqJoqKRyhOT+EACsLOOfpKnoHERppW2Ut
zpDP3N7lAFAi6nePI1Me5wzJBcck0ntpWaWKb5aCUV3x8SGB1Rr9zIE3uO2A0GJc
dwuie70dnTTczE+9zsqv8OzgjGcCgYEA+4t4kl4vXO1C6P1Dk7lKhk+ilPFViuRf
Q32UzCqypRMSrSrYkMxaU1XV9+rPzRbovotTeRft4JG9IlVE8o7llU2LjXPbbblH
3A7Nf9IrLqeFxoP1QbZEkOhDKQtUxXmqDHtIODBldSDDVAjRfh8r+qv2qSgJWMAg
CC87/KVlwSsCgYEA8/UJN0wLonO5BrvS8cN0RK5unv3TMXy7PUrqmjEVFujaSVI1
GeQZwClk1NhY53hRVPvzNfSK0/xBLX+l8I6KIfFryXL1HSnGcIPnsklyMhBW2SPK
7kk0XEz9HEMlslDub1FcAP82h+kbVXT9LBx+TJX9yFGZqigrk+BTwhx3pr0CgYAE
taDFRMQoPjzxdcRtIJv3lcgad8Y9OndaISDHDcmYc5n26gVx+JF8W/AMmzXWxiYH
Yz5l1v/aI4BiAyyuSeScff4t4Mxr6nsg8JoCWaH7VqGXjOLrnwj7mY2gWBj3NYbs
guZgPu+3WKyvhxa9AMJnCA8vLZO3OKmg3ZmG6mXUTwKBgQCgkpKsZQCa972z0hnf
G39tLDv+aaxouEZqM30hiGT+WsOR+1P6QrYkp55CTw/ENTiR0GLS+WCGl3+JT2NT
c2erHPENn3EXI7VenQyEnItD+Fd4cOYLdkl55EW2KOxMMFcL7SUfcqexio7dIvHg
9g91u/LrAQ+ApGthmEDBUDVulQ==
-----END PRIVATE KEY-----
