Certificate:
    Data:
        Version: 3 (0x2)
        Serial Number: 1 (0x1)
    Signature Algorithm: sha256WithRSAEncryption
        Issuer: C=ES, ST=Madrid, L=Madrid, CN=ca.uam.es
        Validity
            Not Before: Apr 30 11:22:53 2016 GMT
            Not After : Apr 30 11:22:53 2017 GMT
        Subject: C=ES, ST=Madrid, O=UAM, OU=EPS, CN=client.uam.es
        Subject Public Key Info:
            Public Key Algorithm: rsaEncryption
                Public-Key: (2048 bit)
                Modulus:
                    00:b0:a0:6c:a7:42:dc:ea:19:90:d2:da:ce:49:62:
                    3d:85:22:25:71:1f:c9:eb:c8:20:8f:ee:51:dd:72:
                    d8:ac:86:dd:7f:d3:73:0d:94:2d:67:c0:e9:53:92:
                    1f:87:39:2b:ea:9a:ee:ea:4e:59:a8:ad:17:94:66:
                    f2:1b:b9:e4:93:13:7b:89:5f:a3:32:79:83:4a:e9:
                    bf:03:fe:4f:31:68:b2:ce:64:ca:f3:53:c2:60:1f:
                    48:19:dc:40:1a:9a:01:39:3a:3e:90:ba:9f:b8:a2:
                    97:42:f4:d3:10:01:13:18:27:d4:b0:0b:d3:29:c4:
                    cb:51:c4:24:f6:c2:cb:75:5f:cc:c9:47:ad:86:9f:
                    fe:90:80:f1:87:b9:83:f2:57:00:98:ab:b0:76:7f:
                    78:73:53:c8:ab:78:9c:a5:a2:37:82:55:6d:5d:a2:
                    cd:ac:5b:f4:e0:ad:35:68:76:b4:9e:87:a7:b7:38:
                    29:72:29:cd:d7:c4:a7:20:06:79:a4:8a:f2:2d:ad:
                    a9:48:76:bc:89:95:17:07:be:88:7c:40:5b:d1:dd:
                    1b:a8:c8:37:17:4c:62:92:51:0f:8c:e7:23:89:e0:
                    2e:1d:23:24:b2:83:78:4c:db:88:69:b0:2c:16:93:
                    e6:e1:4c:47:12:69:d9:59:b0:b8:b7:5e:29:3e:4e:
                    18:75
                Exponent: 65537 (0x10001)
        X509v3 extensions:
            X509v3 Basic Constraints: 
                CA:FALSE
            Netscape Comment: 
                OpenSSL Generated Certificate
            X509v3 Subject Key Identifier: 
                30:A7:68:02:F7:EC:57:F4:20:EE:7F:D0:C2:81:E0:0B:BA:1B:72:2E
            X509v3 Authority Key Identifier: 
                keyid:DC:F1:ED:EB:E8:9B:BF:CA:6D:71:9B:5D:43:AE:26:FF:6E:6E:53:D8

    Signature Algorithm: sha256WithRSAEncryption
         5c:7e:f1:5f:3d:c2:fb:35:79:17:00:8c:dd:59:0d:e4:c7:f1:
         e2:ba:ab:09:9e:62:cf:04:b2:9d:15:f5:44:df:f4:b0:ef:0a:
         b2:95:5f:cc:be:35:40:44:ae:8b:0a:49:31:63:0f:00:6b:2d:
         97:0b:a4:2c:09:8a:eb:0d:12:89:ff:18:8e:d4:3a:1a:1e:a6:
         07:f9:5e:40:4d:eb:34:c7:05:8d:40:1a:d7:ed:31:79:42:b8:
         5d:90:0a:7d:e0:81:6a:0a:43:e9:a0:9f:28:7e:bd:85:03:b1:
         73:26:39:65:15:b4:e9:cf:65:28:5d:8f:4e:00:23:07:f9:e8:
         e7:e3:1a:12:e5:b3:bd:f9:a1:ca:a3:67:86:5e:ec:03:6e:01:
         6c:6f:25:42:6c:82:00:8f:b6:0f:f1:82:a6:9a:9b:b8:4a:af:
         34:69:4b:ca:7b:df:b7:e0:af:d9:56:ec:20:0a:60:78:85:fb:
         53:e5:33:49:44:7c:a9:ec:55:05:0b:7c:06:36:f3:6a:2c:07:
         6d:51:0c:6d:0f:ae:a1:27:c6:7d:cd:cc:64:c8:55:7c:6c:9b:
         2c:21:18:e4:9d:68:bf:fe:eb:e8:bf:93:8c:fa:5e:fa:61:2d:
         a8:a9:09:39:24:eb:2f:dc:20:d5:a1:06:53:1c:30:a0:ad:07:
         f6:85:6c:5f
-----BEGIN CERTIFICATE-----
MIIDizCCAnOgAwIBAgIBATANBgkqhkiG9w0BAQsFADBDMQswCQYDVQQGEwJFUzEP
MA0GA1UECAwGTWFkcmlkMQ8wDQYDVQQHDAZNYWRyaWQxEjAQBgNVBAMMCWNhLnVh
bS5lczAeFw0xNjA0MzAxMTIyNTNaFw0xNzA0MzAxMTIyNTNaMFIxCzAJBgNVBAYT
AkVTMQ8wDQYDVQQIDAZNYWRyaWQxDDAKBgNVBAoMA1VBTTEMMAoGA1UECwwDRVBT
MRYwFAYDVQQDDA1jbGllbnQudWFtLmVzMIIBIjANBgkqhkiG9w0BAQEFAAOCAQ8A
MIIBCgKCAQEAsKBsp0Lc6hmQ0trOSWI9hSIlcR/J68ggj+5R3XLYrIbdf9NzDZQt
Z8DpU5Ifhzkr6pru6k5ZqK0XlGbyG7nkkxN7iV+jMnmDSum/A/5PMWiyzmTK81PC
YB9IGdxAGpoBOTo+kLqfuKKXQvTTEAETGCfUsAvTKcTLUcQk9sLLdV/MyUethp/+
kIDxh7mD8lcAmKuwdn94c1PIq3icpaI3glVtXaLNrFv04K01aHa0noentzgpcinN
18SnIAZ5pIryLa2pSHa8iZUXB76IfEBb0d0bqMg3F0xiklEPjOcjieAuHSMksoN4
TNuIabAsFpPm4UxHEmnZWbC4t14pPk4YdQIDAQABo3sweTAJBgNVHRMEAjAAMCwG
CWCGSAGG+EIBDQQfFh1PcGVuU1NMIEdlbmVyYXRlZCBDZXJ0aWZpY2F0ZTAdBgNV
HQ4EFgQUMKdoAvfsV/Qg7n/QwoHgC7obci4wHwYDVR0jBBgwFoAU3PHt6+ibv8pt
cZtdQ64m/25uU9gwDQYJKoZIhvcNAQELBQADggEBAFx+8V89wvs1eRcAjN1ZDeTH
8eK6qwmeYs8Esp0V9UTf9LDvCrKVX8y+NUBErosKSTFjDwBrLZcLpCwJiusNEon/
GI7UOhoepgf5XkBN6zTHBY1AGtftMXlCuF2QCn3ggWoKQ+mgnyh+vYUDsXMmOWUV
tOnPZShdj04AIwf56OfjGhLls735ocqjZ4Ze7ANuAWxvJUJsggCPtg/xgqaam7hK
rzRpS8p737fgr9lW7CAKYHiF+1PlM0lEfKnsVQULfAY282osB21RDG0PrqEnxn3N
zGTIVXxsmywhGOSdaL/+6+i/k4z6XvphLaipCTkk6y/cINWhBlMcMKCtB/aFbF8=
-----END CERTIFICATE-----
-----BEGIN PRIVATE KEY-----
MIIEvwIBADANBgkqhkiG9w0BAQEFAASCBKkwggSlAgEAAoIBAQCwoGynQtzqGZDS
2s5JYj2FIiVxH8nryCCP7lHdctisht1/03MNlC1nwOlTkh+HOSvqmu7qTlmorReU
ZvIbueSTE3uJX6MyeYNK6b8D/k8xaLLOZMrzU8JgH0gZ3EAamgE5Oj6Qup+4opdC
9NMQARMYJ9SwC9MpxMtRxCT2wst1X8zJR62Gn/6QgPGHuYPyVwCYq7B2f3hzU8ir
eJylojeCVW1dos2sW/TgrTVodrSeh6e3OClyKc3XxKcgBnmkivItralIdryJlRcH
voh8QFvR3RuoyDcXTGKSUQ+M5yOJ4C4dIySyg3hM24hpsCwWk+bhTEcSadlZsLi3
Xik+Thh1AgMBAAECggEBAKNm5t4el23j1P2c+3cccbm3C1iKhi2haa5+VjI+y4Fh
C430Ot53FUKFT9bGunBJTf2u9BTEA2JvL/9U9er8oSAHyCQg3EQX8oTdlp/FJ9KX
/8O9r5xJAuwWRIfYIV361+LvpW4TmSwhDzsccB7AP7/7KWLsraBYtZihk2jOcZfV
TSSY2fvvev1P9UxSzHvejGcQznTvC89S+3I3k6/b/Dlyz4qj5kl0sK6qeHBG4Yy7
/PFRz3h/UOwYO1AuDsX4DNPJ5UdueYkzV82EBc7rthUhzlpB4Lb+Ce6I0cLfgMC9
IDvI/vgxDSUNLb/Us1I4KRDJwR3IrDgsTyFBizHsaMECgYEA3wbSK0whthMau9mp
ul1B71BP0GX/Zg9ynlve0WPIAGrTqANcfkrIbkKaIueBBFobd1Mf1vaabJs/bDn+
0/pZZCCEQ5Xy3ZO5RTM2dZ6nN9QeSt17aVLKWwFZ7n2pXG6pWsQaTstoe6kY9xMG
ur1v9fwMHcvgn8NVTONRkA4iw/kCgYEAyr1xYqAPPYikv5AvHR05CmbhmTknratI
xy6yLrzeAaox3yuYS6BBw5c2ar9RaCJzoVDjf1s2tHG1YCeYzo/tXGFtjt4u+yiS
2FZgn4Hsygj6LOIINkzpUh8tw85wqI+ZWpOpHtwRcnwLHMoZOnZi7sntveDUUsYx
o9OkGipv310CgYEAoJZTvJNb7rNA26P1n1hJAp0sax0WUhGrcTUrck/LkelZr6+D
6PfF7AaO37Ub49tRzZCP64OzW6JJf48e2tl3hi4XrmaI8lzM2XPvsa9kLkHQ8g0a
MJNJW0/UxnG7AfA4hz+Oxc+W0vvGGxmbDdkbhd5PhyDnA4JtqChB8V0MUVkCgYAs
OyxzkewBRsB6sqA0v91j8ZIidZ+8efQE0KE7JSViQ5lh0QcG6M2wOFs86sR97ZZA
iX84l9PVhkFF2x2xYyEr2G2oj7y8Otvequmloxjf8xlxlVapUhpNOlQntfBKNhoE
8tYgz25XBcz+2PCsGov3AMMHe/eWn3rQ/Sl+M+f4WQKBgQDKRI+mcYdLhX8UzInJ
iXjRKThkJ3CSjjJsed96xb6mfJf12kBeuofGSn9atudKvrLmyW2zUGQNjNMUgGLI
svpgFqprIL9u6iOWo6258U+dpM/cobhflzRXP6YnhQutPOdeM1Ich/PofM9jnjJD
NeaNimK5UqcIQFYIXSPbEJM4Sw==
-----END PRIVATE KEY-----
