Certificate:
    Data:
        Version: 3 (0x2)
        Serial Number: 2 (0x2)
    Signature Algorithm: sha256WithRSAEncryption
        Issuer: C=ES, ST=Madrid, L=Madrid, CN=ca.uam.es
        Validity
            Not Before: Apr 30 11:22:53 2016 GMT
            Not After : Apr 30 11:22:53 2017 GMT
        Subject: C=ES, ST=Madrid, O=UAM, OU=EPS, CN=server.uam.es
        Subject Public Key Info:
            Public Key Algorithm: rsaEncryption
                Public-Key: (2048 bit)
                Modulus:
                    00:ae:85:a7:f6:fa:67:07:a6:b6:d6:6a:33:e4:b3:
                    7c:0e:ff:1b:2c:39:0e:31:3f:04:f3:a1:d2:52:bd:
                    95:9b:f6:cd:8c:cc:01:0b:a9:da:b1:7c:e9:c6:7a:
                    e5:c4:b2:b6:b4:2a:61:52:99:de:eb:27:60:b8:35:
                    9e:65:45:24:91:db:99:82:bd:90:d8:27:5e:e3:65:
                    72:be:e9:e3:fa:08:09:57:3c:e6:eb:df:56:f5:f2:
                    d5:88:e6:26:70:39:f0:9c:5b:81:4c:79:b5:c2:79:
                    c9:77:35:ef:82:30:b5:14:08:d5:a3:2f:62:6c:bc:
                    90:bc:f2:5e:fc:9c:f4:8e:b9:5a:cc:31:6f:a1:f9:
                    64:25:08:7b:8e:14:0a:db:8e:1e:2d:79:da:90:24:
                    71:d6:6d:6e:48:e3:a7:90:4a:68:42:71:b1:6f:33:
                    32:3a:c7:bb:24:a4:7b:fb:bf:fc:81:6f:f3:ad:fc:
                    44:92:be:05:ab:ba:75:bb:26:c1:68:4c:ec:ae:99:
                    92:bb:32:35:8b:33:49:4d:5f:02:6e:1a:b6:24:ac:
                    22:f1:bb:41:38:f4:d6:a2:07:0f:3f:67:5c:b9:9d:
                    b5:f2:f4:4d:e5:77:30:ed:fd:ba:4a:2e:64:45:bc:
                    be:97:7d:0c:ba:7a:f6:2d:5b:24:9a:bc:ad:c0:0a:
                    cd:f7
                Exponent: 65537 (0x10001)
        X509v3 extensions:
            X509v3 Basic Constraints: 
                CA:FALSE
            Netscape Comment: 
                OpenSSL Generated Certificate
            X509v3 Subject Key Identifier: 
                29:7C:BB:F8:15:A4:E9:71:F3:E5:CA:0C:5B:6C:F4:D8:60:B8:DE:F7
            X509v3 Authority Key Identifier: 
                keyid:DC:F1:ED:EB:E8:9B:BF:CA:6D:71:9B:5D:43:AE:26:FF:6E:6E:53:D8

    Signature Algorithm: sha256WithRSAEncryption
         b2:4f:41:9f:0e:94:af:ca:d8:9f:5e:a1:6a:58:6e:bf:80:9c:
         cf:78:28:11:83:26:c0:d6:30:16:6a:be:67:cf:12:7b:76:d0:
         a2:c0:91:bc:bc:c9:9e:f8:7e:1a:a1:ae:ca:f2:7d:1c:4d:05:
         ca:a8:f5:b6:48:a2:a9:a2:5e:ac:a0:3a:13:b5:ba:b2:4d:65:
         fe:b6:6b:71:11:2a:f8:5f:be:8e:03:e1:42:58:07:8a:9f:4b:
         7b:7f:a7:64:6c:af:bf:3f:cc:5c:18:7a:15:1f:e8:13:2b:ca:
         6c:22:7b:2b:09:ba:e9:89:79:e3:c4:2d:a7:15:20:69:d1:0f:
         d9:77:56:92:ad:f9:9f:e0:47:9b:b1:11:10:59:06:e1:b6:9f:
         9a:90:79:08:4f:42:86:77:f6:9c:4d:78:f2:32:58:98:27:c0:
         46:a3:f8:b5:85:5c:95:06:46:85:bc:3f:78:b4:52:a6:f9:db:
         69:44:15:0a:1e:14:e5:0d:c6:e9:1d:29:0a:33:ca:32:d2:c1:
         7d:52:5c:cc:27:b6:8d:a8:64:08:9b:78:ca:2a:9e:61:9e:dc:
         ed:3c:7b:3c:e0:63:6d:6f:1f:22:36:ec:b8:45:53:aa:87:6e:
         c1:33:ff:e2:25:a6:3c:fe:ec:a7:8a:1c:f1:4b:31:ba:00:5a:
         83:80:f4:dc
-----BEGIN CERTIFICATE-----
MIIDizCCAnOgAwIBAgIBAjANBgkqhkiG9w0BAQsFADBDMQswCQYDVQQGEwJFUzEP
MA0GA1UECAwGTWFkcmlkMQ8wDQYDVQQHDAZNYWRyaWQxEjAQBgNVBAMMCWNhLnVh
bS5lczAeFw0xNjA0MzAxMTIyNTNaFw0xNzA0MzAxMTIyNTNaMFIxCzAJBgNVBAYT
AkVTMQ8wDQYDVQQIDAZNYWRyaWQxDDAKBgNVBAoMA1VBTTEMMAoGA1UECwwDRVBT
MRYwFAYDVQQDDA1zZXJ2ZXIudWFtLmVzMIIBIjANBgkqhkiG9w0BAQEFAAOCAQ8A
MIIBCgKCAQEAroWn9vpnB6a21moz5LN8Dv8bLDkOMT8E86HSUr2Vm/bNjMwBC6na
sXzpxnrlxLK2tCphUpne6ydguDWeZUUkkduZgr2Q2Cde42Vyvunj+ggJVzzm699W
9fLViOYmcDnwnFuBTHm1wnnJdzXvgjC1FAjVoy9ibLyQvPJe/Jz0jrlazDFvoflk
JQh7jhQK244eLXnakCRx1m1uSOOnkEpoQnGxbzMyOse7JKR7+7/8gW/zrfxEkr4F
q7p1uybBaEzsrpmSuzI1izNJTV8Cbhq2JKwi8btBOPTWogcPP2dcuZ218vRN5Xcw
7f26Si5kRby+l30Munr2LVskmrytwArN9wIDAQABo3sweTAJBgNVHRMEAjAAMCwG
CWCGSAGG+EIBDQQfFh1PcGVuU1NMIEdlbmVyYXRlZCBDZXJ0aWZpY2F0ZTAdBgNV
HQ4EFgQUKXy7+BWk6XHz5coMW2z02GC43vcwHwYDVR0jBBgwFoAU3PHt6+ibv8pt
cZtdQ64m/25uU9gwDQYJKoZIhvcNAQELBQADggEBALJPQZ8OlK/K2J9eoWpYbr+A
nM94KBGDJsDWMBZqvmfPEnt20KLAkby8yZ74fhqhrsryfRxNBcqo9bZIoqmiXqyg
OhO1urJNZf62a3ERKvhfvo4D4UJYB4qfS3t/p2Rsr78/zFwYehUf6BMrymwieysJ
uumJeePELacVIGnRD9l3VpKt+Z/gR5uxERBZBuG2n5qQeQhPQoZ39pxNePIyWJgn
wEaj+LWFXJUGRoW8P3i0Uqb522lEFQoeFOUNxukdKQozyjLSwX1SXMwnto2oZAib
eMoqnmGe3O08ezzgY21vHyI27LhFU6qHbsEz/+Ilpjz+7KeKHPFLMboAWoOA9Nw=
-----END CERTIFICATE-----
-----BEGIN PRIVATE KEY-----
MIIEvQIBADANBgkqhkiG9w0BAQEFAASCBKcwggSjAgEAAoIBAQCuhaf2+mcHprbW
ajPks3wO/xssOQ4xPwTzodJSvZWb9s2MzAELqdqxfOnGeuXEsra0KmFSmd7rJ2C4
NZ5lRSSR25mCvZDYJ17jZXK+6eP6CAlXPObr31b18tWI5iZwOfCcW4FMebXCecl3
Ne+CMLUUCNWjL2JsvJC88l78nPSOuVrMMW+h+WQlCHuOFArbjh4tedqQJHHWbW5I
46eQSmhCcbFvMzI6x7skpHv7v/yBb/Ot/ESSvgWrunW7JsFoTOyumZK7MjWLM0lN
XwJuGrYkrCLxu0E49NaiBw8/Z1y5nbXy9E3ldzDt/bpKLmRFvL6XfQy6evYtWySa
vK3ACs33AgMBAAECggEAYM8fZy9r66CdF7993cV6cc8tQZC8wLCWjJcdVmx4CzYS
u6GGivPDrmT+QO13e28vTi2cIvfb4lHLoyOLI94A9S/9rbp+GIluZ3Gk/yY7Ij1H
AS91YS5YzMHRlcklVWeugu13gfaZzrFEAm7W1z8xk1V7PLRSQsMu/sDr0/E0794T
bqdfMQPBB02IVjENbF4Tl3q2ANROh50Rzkods0wTZMPHNIK8NP2sNolCI8niy7DY
CEfgfg/agxBMtoBqIYwaKhb8P5G0qj6+EsXQEt9cobtiERHgW4jmJPmASiXbsC4o
FY5/L/12Uc2cX4F68G9ldmHsF67UPHLj1+v8PkCOkQKBgQDVWXQU+lqS8cVzUCTo
DebB1e9Nm+veIrPYudnKi96+IgvPG2J7BFMtS267DxVIQY4fVuNV5Su92e74eKx2
E4r8lSMHDI/tnIyDBfGXjDjEOFUGEswEWYwtxFXqGQ2md/xVViNMFfUuJpMrrOH8
IdkDXtziUwJHjibeS6d3BdheuwKBgQDRaSSaYYTcTguPFN7JlkQVs3pJm9uEI9zI
lq/BdaQp42Shf3msU/KNgk2Qf0rYmkYp9h4RRKGOrrFH8nXIc4PJ1SYcbky8GF8k
ddkjVQkAsHhhRbfO6Tr9BGWFSa97p1gcqRuBOQEoF4oBO+ywzHvLStN/XCt2KlC8
XfwSukaf9QKBgCesccyw3YTz1q7h2WsZoq6q9Mwu0YbGV0FXFiv3JJ2gwSdrRT3x
CPKkU1wPqvp7zkz/oFjJu/+a9jhYYGG4sqDTrubRrDYYZXy77zgqSCgc/ZqahjvM
1ydvmjZlIEezikXoNbohXy2M2NNHW+LB/JQG4PZpT0Q1J/8wfFzCxoCfAoGBAMdv
WlPJEi56CZof5zmXaYo9XvZhgANt4CQNFp+peUoHbVw9OlS7smHAujwmbtKwwqfN
5L7PXQm1J9N8f14DXXzICb7D8UKl916S+dQjdSp55nvFWROuneY/3Ku/DGg4bLsG
9tHvx0E2gdFBD98lL7Ths2E1F5M3I6Lx41K2ovJNAoGAYr24gLPgiyIdAGVLHHWt
w0PyNuaui5jmcoA8h3Cw7U9hHzVzUpgUKK4krlSJrVB+iwOZdzvJ435A4o/IzqlH
ZRjQDqKulWEHbz6Uut4+Dnai+46bIlD6xivY3W1F8766lkTnm95EHHzpOz9mdQU8
Rw7QQDvrO38p4XdgcOQBIyw=
-----END PRIVATE KEY-----
-----BEGIN CERTIFICATE-----
MIIDWTCCAkGgAwIBAgIJALk3qW383m64MA0GCSqGSIb3DQEBCwUAMEMxCzAJBgNV
BAYTAkVTMQ8wDQYDVQQIDAZNYWRyaWQxDzANBgNVBAcMBk1hZHJpZDESMBAGA1UE
AwwJY2EudWFtLmVzMB4XDTE2MDQzMDExMjI1M1oXDTE2MDUzMDExMjI1M1owQzEL
MAkGA1UEBhMCRVMxDzANBgNVBAgMBk1hZHJpZDEPMA0GA1UEBwwGTWFkcmlkMRIw
EAYDVQQDDAljYS51YW0uZXMwggEiMA0GCSqGSIb3DQEBAQUAA4IBDwAwggEKAoIB
AQDkJwvmL05tfVg9IW2IEEqD5CyScfVYbh9uVG39V7tWVTIe/7UcQ2HyHCx98Sbb
4iSHnhjPkWS1MMK7KVsz/dG5xsm3PnOTR4DTZW3c3uJ8o14hytMSjIX2nMQRCNRt
aNdrG9lLDGwErWLR5E5X1AIpp+OCLxb71MSC4FaHXB9NoqhVpp2xWQHdHTfNM3LI
uPG/lDSr0aCyuukdsfg2WfEX9Bs9EiaoQ0e8awaDzFT90T7jVZOg6+hIy5OA4udq
SR6twQT9rq4X3kerh0Qcc2txOSbN4T78bd3dE2j7tOe9aqI3WV+W9EOZGJtf7UCz
EDt54ZOK0/xqEZE1hwTwY9ODAgMBAAGjUDBOMB0GA1UdDgQWBBTc8e3r6Ju/ym1x
m11Drib/bm5T2DAfBgNVHSMEGDAWgBTc8e3r6Ju/ym1xm11Drib/bm5T2DAMBgNV
HRMEBTADAQH/MA0GCSqGSIb3DQEBCwUAA4IBAQBxZEiFmDzmKTdNXG8NGSAivNqO
p+LETA6IOGChgVvoba0FnFTzB0JeEmyfTNvaFjMCRa5Oz3BlDZOMHT7+0LsJmECF
QAZQjj+SW9qSGyFXWvX51lashu1t78S9xO3tmEcnc15mz1OLlQ6P99fIOAPikkJY
yed3gOx7aw6k9OxnvgCUT0xvxsl2J1Ib5YPV+6uFzOuM8oBsJhxm2xrSEC1QMh/a
3ybYpYNKE35PYNyHrTIXAOWxHaYdKKkA8drjECyNpsTC+a1AHAeegsqN8KGhYKwW
+ZFzsZYp95zjYUnQQOxtEzswvF7Dm9XNpPQuDptWMkYNudt0Ic1vVhgjHD9h
-----END CERTIFICATE-----
