Certificate:
    Data:
        Version: 3 (0x2)
        Serial Number: 1 (0x1)
    Signature Algorithm: sha256WithRSAEncryption
        Issuer: C=ES, ST=Madrid, L=Madrid, CN=ca.uam.es
        Validity
            Not Before: Apr 28 09:16:24 2016 GMT
            Not After : Apr 28 09:16:24 2017 GMT
        Subject: C=ES, ST=Madrid, O=UAM, OU=EPS, CN=client.uam.es
        Subject Public Key Info:
            Public Key Algorithm: rsaEncryption
                Public-Key: (2048 bit)
                Modulus:
                    00:c3:4a:52:14:e9:14:01:63:e7:1b:b4:cb:23:39:
                    df:9c:93:93:3e:ca:f9:24:28:61:f6:4b:04:ad:9c:
                    89:1e:2a:71:a1:fb:93:0d:85:04:a8:04:81:71:d4:
                    55:62:90:5a:bc:20:09:28:ab:43:fa:96:3d:f6:a9:
                    d1:8d:69:82:36:5f:4b:32:06:40:a0:fa:63:38:51:
                    20:69:dc:1f:4a:34:e1:50:ea:a1:49:85:c2:46:1e:
                    b9:aa:0d:98:2b:47:1f:3b:35:2c:1c:15:ba:dc:0d:
                    df:df:50:8e:65:14:75:f1:c4:a1:92:3c:bd:a2:8c:
                    33:21:35:fd:24:0d:c5:fb:00:de:9a:e6:e4:20:91:
                    b6:d4:58:c9:fe:06:8c:5a:c6:62:e2:7a:2c:76:a3:
                    1b:77:84:88:00:e0:a1:70:ff:5b:e1:cd:9d:95:94:
                    e8:f6:c4:9d:46:40:86:ba:59:e3:ee:ba:6a:dc:59:
                    72:cd:65:61:d2:b9:7d:50:8c:3f:8f:28:c5:69:83:
                    12:0c:21:13:92:92:6b:b9:8f:b0:06:21:1e:fd:ea:
                    e3:4b:f5:3e:0f:3b:32:99:85:a7:2a:14:08:07:cd:
                    84:d1:18:d1:17:70:f0:64:75:d1:88:19:cb:5c:25:
                    1c:74:c9:af:1f:53:3e:07:05:94:46:5b:81:37:9e:
                    c0:0f
                Exponent: 65537 (0x10001)
        X509v3 extensions:
            X509v3 Basic Constraints: 
                CA:FALSE
            Netscape Comment: 
                OpenSSL Generated Certificate
            X509v3 Subject Key Identifier: 
                3D:43:94:7E:BD:BE:91:E2:E2:26:58:D3:0F:CE:9D:E9:AF:72:46:69
            X509v3 Authority Key Identifier: 
                keyid:8E:6E:3A:56:FC:05:61:BB:57:7F:CC:A5:20:6A:2F:3E:82:47:C0:57

    Signature Algorithm: sha256WithRSAEncryption
         c5:86:c1:b9:3f:8f:27:3a:dd:de:b4:d1:70:6f:f8:16:58:db:
         a5:ae:d6:61:e7:0e:db:ef:58:11:ed:20:03:28:e4:21:92:21:
         6d:8c:b1:eb:aa:ed:57:27:fe:b8:ba:f7:9c:ad:be:43:f2:47:
         0d:66:40:ac:f1:d2:a5:15:17:1c:b8:5a:25:76:52:8a:68:07:
         0a:40:f8:20:06:c1:21:de:1e:06:35:cd:ca:f8:44:01:d8:dc:
         cb:e8:7f:a5:8d:2d:0a:64:bf:09:2b:86:19:dd:ac:33:86:f8:
         3b:15:59:aa:10:e2:84:dd:10:35:59:f4:f8:58:a1:e9:ae:c3:
         4a:cf:62:ea:fb:b1:71:17:19:f8:9b:c3:35:f4:05:1d:25:fc:
         13:47:0c:ad:73:45:bf:f7:dc:a0:31:d8:da:ad:e1:a3:86:cb:
         f8:c1:65:ea:9e:e8:e2:94:9b:6d:f3:b6:1e:69:d2:c2:05:d5:
         36:d8:29:13:b9:59:4d:5a:6f:28:bd:0b:7d:9b:37:da:34:4a:
         9c:51:4a:f8:3b:a8:d2:9b:73:43:bf:80:7f:56:21:26:36:d9:
         ae:49:29:0a:aa:ef:ac:cd:c6:1a:80:b3:aa:70:e0:85:4a:ad:
         66:8c:dc:2d:76:84:5e:70:98:21:d3:99:ef:6a:03:40:bf:e9:
         91:1d:4e:89
-----BEGIN CERTIFICATE-----
MIIDizCCAnOgAwIBAgIBATANBgkqhkiG9w0BAQsFADBDMQswCQYDVQQGEwJFUzEP
MA0GA1UECAwGTWFkcmlkMQ8wDQYDVQQHDAZNYWRyaWQxEjAQBgNVBAMMCWNhLnVh
bS5lczAeFw0xNjA0MjgwOTE2MjRaFw0xNzA0MjgwOTE2MjRaMFIxCzAJBgNVBAYT
AkVTMQ8wDQYDVQQIDAZNYWRyaWQxDDAKBgNVBAoMA1VBTTEMMAoGA1UECwwDRVBT
MRYwFAYDVQQDDA1jbGllbnQudWFtLmVzMIIBIjANBgkqhkiG9w0BAQEFAAOCAQ8A
MIIBCgKCAQEAw0pSFOkUAWPnG7TLIznfnJOTPsr5JChh9ksErZyJHipxofuTDYUE
qASBcdRVYpBavCAJKKtD+pY99qnRjWmCNl9LMgZAoPpjOFEgadwfSjThUOqhSYXC
Rh65qg2YK0cfOzUsHBW63A3f31COZRR18cShkjy9oowzITX9JA3F+wDemubkIJG2
1FjJ/gaMWsZi4nosdqMbd4SIAOChcP9b4c2dlZTo9sSdRkCGulnj7rpq3FlyzWVh
0rl9UIw/jyjFaYMSDCETkpJruY+wBiEe/erjS/U+DzsymYWnKhQIB82E0RjRF3Dw
ZHXRiBnLXCUcdMmvH1M+BwWURluBN57ADwIDAQABo3sweTAJBgNVHRMEAjAAMCwG
CWCGSAGG+EIBDQQfFh1PcGVuU1NMIEdlbmVyYXRlZCBDZXJ0aWZpY2F0ZTAdBgNV
HQ4EFgQUPUOUfr2+keLiJljTD86d6a9yRmkwHwYDVR0jBBgwFoAUjm46VvwFYbtX
f8ylIGovPoJHwFcwDQYJKoZIhvcNAQELBQADggEBAMWGwbk/jyc63d600XBv+BZY
26Wu1mHnDtvvWBHtIAMo5CGSIW2Mseuq7Vcn/ri695ytvkPyRw1mQKzx0qUVFxy4
WiV2UopoBwpA+CAGwSHeHgY1zcr4RAHY3Mvof6WNLQpkvwkrhhndrDOG+DsVWaoQ
4oTdEDVZ9PhYoemuw0rPYur7sXEXGfibwzX0BR0l/BNHDK1zRb/33KAx2Nqt4aOG
y/jBZeqe6OKUm23zth5p0sIF1TbYKRO5WU1abyi9C32bN9o0SpxRSvg7qNKbc0O/
gH9WISY22a5JKQqq76zNxhqAs6pw4IVKrWaM3C12hF5wmCHTme9qA0C/6ZEdTok=
-----END CERTIFICATE-----
