Certificate:
    Data:
        Version: 3 (0x2)
        Serial Number: 1 (0x1)
    Signature Algorithm: sha256WithRSAEncryption
        Issuer: C=ES, ST=Madrid, L=Madrid, CN=ca.uam.es
        Validity
            Not Before: Apr 28 22:53:26 2016 GMT
            Not After : Apr 28 22:53:26 2017 GMT
        Subject: C=ES, ST=Madrid, O=UAM, OU=EPS, CN=server.uam.es
        Subject Public Key Info:
            Public Key Algorithm: rsaEncryption
                Public-Key: (2048 bit)
                Modulus:
                    00:b2:55:0f:dd:73:96:97:06:39:9e:fa:09:6b:0a:
                    a9:11:d2:0a:01:1f:d7:5f:7f:7a:a1:5d:2b:41:62:
                    20:35:d6:be:50:48:a1:5e:7c:04:1f:31:6b:a7:80:
                    42:ba:1c:b1:ac:ad:06:e0:7e:ef:7c:c8:6b:55:62:
                    e8:57:11:86:f4:75:2a:50:b7:a2:05:4a:57:e4:33:
                    10:b0:e0:1b:e0:a0:5a:3d:ee:2e:37:bb:38:e5:22:
                    82:e9:e8:44:d0:e4:99:c6:46:b6:f3:2b:fe:c1:3c:
                    00:9f:8c:cd:8f:32:29:51:95:a6:47:d9:29:a1:d2:
                    10:86:4c:f8:90:b7:3b:fb:09:66:bb:05:aa:9d:64:
                    ca:6e:38:31:c4:c6:30:15:e1:35:85:d0:3a:7c:24:
                    47:3d:78:8e:b8:6d:dd:10:b8:5d:2b:29:21:32:52:
                    1b:20:16:70:e0:89:32:93:2b:af:c6:9d:87:87:b5:
                    13:0e:61:c5:2d:75:c0:40:db:33:c2:f3:3f:5f:bb:
                    e2:83:9d:29:f5:44:1b:e2:0a:8c:f3:45:3f:ac:74:
                    d8:6b:73:10:10:74:bd:0d:63:30:b3:83:5f:08:fa:
                    fb:02:42:70:17:7b:eb:c5:6f:2f:ce:28:7b:31:b0:
                    d7:13:04:11:f4:ad:0f:e3:a8:81:7d:ab:71:e1:01:
                    60:e1
                Exponent: 65537 (0x10001)
        X509v3 extensions:
            X509v3 Basic Constraints: 
                CA:FALSE
            Netscape Comment: 
                OpenSSL Generated Certificate
            X509v3 Subject Key Identifier: 
                DD:94:A2:47:94:C5:95:60:F1:D4:29:36:55:AD:4A:62:BF:23:75:9B
            X509v3 Authority Key Identifier: 
                keyid:B9:05:CE:A5:CF:F7:E4:39:AD:23:29:86:2D:50:D4:52:6D:A2:EF:4B

    Signature Algorithm: sha256WithRSAEncryption
         5f:28:38:8c:8d:41:df:fa:22:8f:08:7e:0f:ed:42:99:4d:6e:
         24:69:d3:5b:b0:cd:4a:24:6d:e6:b7:45:a1:49:a6:6b:43:19:
         97:4f:73:23:7a:0d:d4:d6:ca:0e:b5:da:2c:12:e0:69:0f:23:
         42:77:69:01:e0:ce:b3:d8:8b:ab:b5:f4:da:3c:27:58:db:cd:
         e1:cd:31:a1:99:1f:95:bd:53:64:8b:cd:21:f8:4a:6b:e5:8e:
         03:58:2d:64:2e:f5:c6:88:85:2a:46:25:3f:3f:db:b3:67:05:
         63:f6:97:bd:80:06:45:0b:51:14:d1:1c:fc:08:17:7d:df:f4:
         c7:bf:e6:11:00:50:da:52:fe:63:e5:ea:4c:2a:7a:e1:02:3e:
         dc:57:f2:39:2a:31:a6:b8:4f:ec:16:ba:fa:40:1c:83:52:31:
         f9:ec:22:77:76:a9:93:c2:fb:b3:78:b7:45:1e:b3:11:b9:3b:
         56:8d:a2:6e:d8:0b:5d:39:97:bc:93:f4:a0:7d:99:09:b9:8e:
         f1:aa:0a:9c:75:8a:fa:52:85:f7:f8:94:05:89:84:36:db:57:
         ba:87:8d:b3:bc:07:51:4f:98:13:e9:03:d8:ef:b2:12:23:29:
         0b:0e:dd:f1:67:00:cd:8c:b0:31:4e:cd:de:7c:ff:2c:9e:24:
         13:3b:28:11
-----BEGIN CERTIFICATE-----
MIIDizCCAnOgAwIBAgIBATANBgkqhkiG9w0BAQsFADBDMQswCQYDVQQGEwJFUzEP
MA0GA1UECAwGTWFkcmlkMQ8wDQYDVQQHDAZNYWRyaWQxEjAQBgNVBAMMCWNhLnVh
bS5lczAeFw0xNjA0MjgyMjUzMjZaFw0xNzA0MjgyMjUzMjZaMFIxCzAJBgNVBAYT
AkVTMQ8wDQYDVQQIDAZNYWRyaWQxDDAKBgNVBAoMA1VBTTEMMAoGA1UECwwDRVBT
MRYwFAYDVQQDDA1zZXJ2ZXIudWFtLmVzMIIBIjANBgkqhkiG9w0BAQEFAAOCAQ8A
MIIBCgKCAQEAslUP3XOWlwY5nvoJawqpEdIKAR/XX396oV0rQWIgNda+UEihXnwE
HzFrp4BCuhyxrK0G4H7vfMhrVWLoVxGG9HUqULeiBUpX5DMQsOAb4KBaPe4uN7s4
5SKC6ehE0OSZxka28yv+wTwAn4zNjzIpUZWmR9kpodIQhkz4kLc7+wlmuwWqnWTK
bjgxxMYwFeE1hdA6fCRHPXiOuG3dELhdKykhMlIbIBZw4Ikykyuvxp2Hh7UTDmHF
LXXAQNszwvM/X7vig50p9UQb4gqM80U/rHTYa3MQEHS9DWMws4NfCPr7AkJwF3vr
xW8vzih7MbDXEwQR9K0P46iBfatx4QFg4QIDAQABo3sweTAJBgNVHRMEAjAAMCwG
CWCGSAGG+EIBDQQfFh1PcGVuU1NMIEdlbmVyYXRlZCBDZXJ0aWZpY2F0ZTAdBgNV
HQ4EFgQU3ZSiR5TFlWDx1Ck2Va1KYr8jdZswHwYDVR0jBBgwFoAUuQXOpc/35Dmt
IymGLVDUUm2i70swDQYJKoZIhvcNAQELBQADggEBAF8oOIyNQd/6Io8Ifg/tQplN
biRp01uwzUokbea3RaFJpmtDGZdPcyN6DdTWyg612iwS4GkPI0J3aQHgzrPYi6u1
9No8J1jbzeHNMaGZH5W9U2SLzSH4SmvljgNYLWQu9caIhSpGJT8/27NnBWP2l72A
BkULURTRHPwIF33f9Me/5hEAUNpS/mPl6kwqeuECPtxX8jkqMaa4T+wWuvpAHINS
MfnsInd2qZPC+7N4t0UesxG5O1aNom7YC105l7yT9KB9mQm5jvGqCpx1ivpShff4
lAWJhDbbV7qHjbO8B1FPmBPpA9jvshIjKQsO3fFnAM2MsDFOzd58/yyeJBM7KBE=
-----END CERTIFICATE-----
