Certificate:
    Data:
        Version: 3 (0x2)
        Serial Number: 2 (0x2)
    Signature Algorithm: sha256WithRSAEncryption
        Issuer: C=ES, ST=Madrid, L=Madrid, CN=ca.uam.es
        Validity
            Not Before: May  1 10:32:52 2016 GMT
            Not After : May  1 10:32:52 2017 GMT
        Subject: C=ES, ST=Madrid, O=UAM, OU=EPS, CN=server.uam.es
        Subject Public Key Info:
            Public Key Algorithm: rsaEncryption
                Public-Key: (2048 bit)
                Modulus:
                    00:96:c2:af:0b:85:7a:f8:95:33:f0:a2:52:11:67:
                    f2:4b:84:05:0d:e3:a6:fd:2b:f3:c3:a7:40:d2:2c:
                    7b:04:1a:6b:80:bd:13:3e:b3:29:f5:fc:36:6f:be:
                    8c:41:aa:cd:25:f8:1d:82:45:90:c0:e6:61:bc:00:
                    64:75:c1:9a:4c:49:29:2d:f4:84:e1:9d:a7:47:c6:
                    fa:04:47:b8:3b:e5:c7:a0:b1:f1:32:ca:01:17:ec:
                    a3:a7:fd:19:c0:74:14:76:e8:91:d7:c0:07:64:5e:
                    08:b9:eb:0c:44:6e:74:77:85:b5:9f:7d:56:72:82:
                    20:e3:f0:4e:67:b8:7c:a6:a9:28:ed:78:35:e0:2f:
                    fa:00:86:1f:56:ac:35:ca:35:4f:1a:72:e6:96:2e:
                    b0:ed:a7:19:77:98:94:ef:1b:37:02:f5:01:c2:7f:
                    36:22:ba:ef:69:51:d9:fa:ee:81:aa:11:67:f3:0b:
                    98:74:49:c7:80:63:c9:8c:15:74:67:50:2b:03:fd:
                    03:74:6e:bd:c7:85:00:fd:72:fd:03:74:f9:e3:ec:
                    8d:b0:6b:f8:7b:6f:f2:98:05:2f:2d:76:f0:28:48:
                    d6:ea:6a:63:ad:90:03:37:b7:21:36:32:87:eb:37:
                    41:b4:81:b0:6e:ad:a2:6d:1e:d0:ae:cb:15:5e:59:
                    a2:8d
                Exponent: 65537 (0x10001)
        X509v3 extensions:
            X509v3 Basic Constraints: 
                CA:FALSE
            Netscape Comment: 
                OpenSSL Generated Certificate
            X509v3 Subject Key Identifier: 
                63:22:E7:85:B2:0F:A6:E7:F9:A1:A5:D0:4D:C6:1E:4C:CA:31:28:5F
            X509v3 Authority Key Identifier: 
                keyid:3C:67:1F:6B:E5:C9:01:48:F3:21:EA:65:CE:1E:2D:31:8C:57:F2:7F

    Signature Algorithm: sha256WithRSAEncryption
         9a:46:a7:da:12:16:20:0e:ff:f2:7f:4c:a4:e5:3a:1b:dd:cb:
         22:b8:83:dc:eb:c2:c5:a8:8b:42:00:f2:5f:d5:6f:a7:b9:e4:
         21:01:92:36:c5:1e:7e:ad:ff:d4:ff:d7:cf:c3:9a:51:77:54:
         74:a7:e9:58:b9:56:25:91:7c:23:fe:af:b3:2c:93:55:12:d4:
         c6:c2:cb:1b:29:6c:f3:18:34:aa:c6:83:b5:f3:3d:4e:af:fc:
         a1:4b:21:57:fc:61:45:3d:98:8b:d4:eb:d1:0c:6e:bb:b5:2c:
         37:e5:fc:47:a1:77:8f:97:47:cf:a0:de:90:a6:e0:6a:96:52:
         a1:a9:6f:78:4b:5e:1e:83:48:aa:25:8a:15:62:09:2e:30:7f:
         ec:18:f4:15:57:68:a2:94:53:82:74:49:12:10:64:be:22:e8:
         56:2d:df:b2:34:f4:f1:b2:92:88:9b:7e:08:6f:1e:36:fc:56:
         80:19:43:d0:78:dd:ba:a6:2b:71:50:25:75:56:b3:22:fa:4a:
         83:fd:fd:bc:89:d9:4f:05:4b:dc:95:c3:c6:13:39:24:ec:93:
         b7:7f:9f:c1:c7:e6:2d:11:49:fd:59:2d:3d:9b:c2:63:ae:20:
         35:d4:78:9b:e4:87:08:e8:29:6f:c0:df:f2:8e:60:5a:d5:ca:
         2a:73:f4:50
-----BEGIN CERTIFICATE-----
MIIDizCCAnOgAwIBAgIBAjANBgkqhkiG9w0BAQsFADBDMQswCQYDVQQGEwJFUzEP
MA0GA1UECAwGTWFkcmlkMQ8wDQYDVQQHDAZNYWRyaWQxEjAQBgNVBAMMCWNhLnVh
bS5lczAeFw0xNjA1MDExMDMyNTJaFw0xNzA1MDExMDMyNTJaMFIxCzAJBgNVBAYT
AkVTMQ8wDQYDVQQIDAZNYWRyaWQxDDAKBgNVBAoMA1VBTTEMMAoGA1UECwwDRVBT
MRYwFAYDVQQDDA1zZXJ2ZXIudWFtLmVzMIIBIjANBgkqhkiG9w0BAQEFAAOCAQ8A
MIIBCgKCAQEAlsKvC4V6+JUz8KJSEWfyS4QFDeOm/Svzw6dA0ix7BBprgL0TPrMp
9fw2b76MQarNJfgdgkWQwOZhvABkdcGaTEkpLfSE4Z2nR8b6BEe4O+XHoLHxMsoB
F+yjp/0ZwHQUduiR18AHZF4IuesMRG50d4W1n31WcoIg4/BOZ7h8pqko7Xg14C/6
AIYfVqw1yjVPGnLmli6w7acZd5iU7xs3AvUBwn82IrrvaVHZ+u6BqhFn8wuYdEnH
gGPJjBV0Z1ArA/0DdG69x4UA/XL9A3T54+yNsGv4e2/ymAUvLXbwKEjW6mpjrZAD
N7chNjKH6zdBtIGwbq2ibR7QrssVXlmijQIDAQABo3sweTAJBgNVHRMEAjAAMCwG
CWCGSAGG+EIBDQQfFh1PcGVuU1NMIEdlbmVyYXRlZCBDZXJ0aWZpY2F0ZTAdBgNV
HQ4EFgQUYyLnhbIPpuf5oaXQTcYeTMoxKF8wHwYDVR0jBBgwFoAUPGcfa+XJAUjz
Ieplzh4tMYxX8n8wDQYJKoZIhvcNAQELBQADggEBAJpGp9oSFiAO//J/TKTlOhvd
yyK4g9zrwsWoi0IA8l/Vb6e55CEBkjbFHn6t/9T/18/DmlF3VHSn6Vi5ViWRfCP+
r7Msk1US1MbCyxspbPMYNKrGg7XzPU6v/KFLIVf8YUU9mIvU69EMbru1LDfl/Eeh
d4+XR8+g3pCm4GqWUqGpb3hLXh6DSKolihViCS4wf+wY9BVXaKKUU4J0SRIQZL4i
6FYt37I09PGykoibfghvHjb8VoAZQ9B43bqmK3FQJXVWsyL6SoP9/byJ2U8FS9yV
w8YTOSTsk7d/n8HH5i0RSf1ZLT2bwmOuIDXUeJvkhwjoKW/A3/KOYFrVyipz9FA=
-----END CERTIFICATE-----
