Certificate:
    Data:
        Version: 3 (0x2)
        Serial Number: 2 (0x2)
    Signature Algorithm: sha256WithRSAEncryption
        Issuer: C=ES, ST=Madrid, L=Madrid, CN=ca.uam.es
        Validity
            Not Before: Apr 28 09:16:29 2016 GMT
            Not After : Apr 28 09:16:29 2017 GMT
        Subject: C=ES, ST=Madrid, O=UAM, OU=EPS, CN=server.uam.es
        Subject Public Key Info:
            Public Key Algorithm: rsaEncryption
                Public-Key: (2048 bit)
                Modulus:
                    00:c8:a2:1e:35:32:71:c7:75:a5:a5:b7:5e:f5:ac:
                    dd:5f:8c:53:14:e8:c6:57:90:04:25:d8:6b:ab:f8:
                    ec:4b:3f:cb:0d:d8:05:db:42:92:d1:9e:0d:7f:7f:
                    b6:bb:09:ab:8e:b2:83:cc:5b:09:2e:ba:21:81:b4:
                    fa:78:d3:51:51:91:96:23:d5:97:71:ab:95:78:21:
                    10:85:dc:bd:6c:90:8b:43:90:78:ca:8b:34:bc:fd:
                    78:00:98:3e:b3:15:fa:a2:9a:7d:5e:15:62:41:4f:
                    6c:43:8b:27:73:6c:18:74:4e:2d:de:cc:10:6c:c8:
                    95:a6:fe:52:1f:1d:1e:a7:24:39:ed:e4:9a:3e:db:
                    fe:00:2e:f1:0b:e7:00:48:85:b3:19:68:c8:35:6d:
                    cf:73:a9:53:52:37:f8:a2:c6:0a:13:aa:c2:47:e6:
                    eb:3d:dc:c1:e0:34:25:34:69:16:06:93:df:1c:1e:
                    28:e9:94:56:98:bb:f9:fa:6e:7f:be:53:c0:2d:0f:
                    9d:00:ac:9d:b2:0d:00:41:e3:7c:9e:bb:6d:a0:8b:
                    28:93:78:5e:f1:53:cb:ea:c3:a4:e8:0a:40:3a:80:
                    1a:62:71:b8:48:82:2e:7f:63:d8:d9:02:30:90:ac:
                    1a:e0:47:00:e6:19:54:bf:5e:cf:bd:56:d5:0b:e0:
                    be:33
                Exponent: 65537 (0x10001)
        X509v3 extensions:
            X509v3 Basic Constraints: 
                CA:FALSE
            Netscape Comment: 
                OpenSSL Generated Certificate
            X509v3 Subject Key Identifier: 
                4B:26:D6:BF:3E:39:EF:72:B1:F7:CA:43:BA:35:81:8F:AD:29:E9:F3
            X509v3 Authority Key Identifier: 
                keyid:8E:6E:3A:56:FC:05:61:BB:57:7F:CC:A5:20:6A:2F:3E:82:47:C0:57

    Signature Algorithm: sha256WithRSAEncryption
         40:6c:eb:ee:3f:16:de:bf:1c:64:28:48:0d:d4:e3:51:7c:82:
         b0:ef:ba:a8:d4:7e:02:d8:9f:92:8b:1a:b9:d3:f4:cc:17:f7:
         22:8a:91:64:49:b5:ae:ba:00:55:39:7a:14:a1:15:7d:83:93:
         53:25:fb:31:c9:88:13:20:3f:85:ea:ca:b0:56:c5:35:63:35:
         22:cf:7e:c0:52:25:88:1b:f1:6c:c1:8d:14:07:ad:10:24:48:
         13:a2:c7:65:5a:9c:31:73:87:c3:b1:f3:e7:cb:58:53:cf:92:
         8b:b4:28:63:fe:77:6a:1f:af:e2:58:7f:32:5e:48:5b:48:4b:
         cc:a1:1f:c8:9d:e1:0e:d7:8c:35:6c:33:71:4f:a5:01:76:fa:
         13:88:82:50:b3:ff:78:e8:26:22:04:d1:e0:99:43:2e:c0:b1:
         ee:76:4d:55:b0:15:28:e1:9d:95:9f:3e:57:c8:a7:0f:32:87:
         e6:8c:06:39:4d:e5:b1:aa:75:48:2d:cd:68:66:94:07:d6:20:
         f9:81:15:54:5c:0b:47:83:c8:3e:61:54:c8:70:11:9e:ba:cb:
         e3:6c:cb:a2:80:9c:ed:0b:fd:0d:8e:7a:f8:31:66:52:b3:94:
         28:00:51:b4:17:31:92:6b:57:1b:ff:94:08:ab:55:45:ac:4b:
         74:70:29:c3
-----BEGIN CERTIFICATE-----
MIIDizCCAnOgAwIBAgIBAjANBgkqhkiG9w0BAQsFADBDMQswCQYDVQQGEwJFUzEP
MA0GA1UECAwGTWFkcmlkMQ8wDQYDVQQHDAZNYWRyaWQxEjAQBgNVBAMMCWNhLnVh
bS5lczAeFw0xNjA0MjgwOTE2MjlaFw0xNzA0MjgwOTE2MjlaMFIxCzAJBgNVBAYT
AkVTMQ8wDQYDVQQIDAZNYWRyaWQxDDAKBgNVBAoMA1VBTTEMMAoGA1UECwwDRVBT
MRYwFAYDVQQDDA1zZXJ2ZXIudWFtLmVzMIIBIjANBgkqhkiG9w0BAQEFAAOCAQ8A
MIIBCgKCAQEAyKIeNTJxx3Wlpbde9azdX4xTFOjGV5AEJdhrq/jsSz/LDdgF20KS
0Z4Nf3+2uwmrjrKDzFsJLrohgbT6eNNRUZGWI9WXcauVeCEQhdy9bJCLQ5B4yos0
vP14AJg+sxX6opp9XhViQU9sQ4snc2wYdE4t3swQbMiVpv5SHx0epyQ57eSaPtv+
AC7xC+cASIWzGWjINW3Pc6lTUjf4osYKE6rCR+brPdzB4DQlNGkWBpPfHB4o6ZRW
mLv5+m5/vlPALQ+dAKydsg0AQeN8nrttoIsok3he8VPL6sOk6ApAOoAaYnG4SIIu
f2PY2QIwkKwa4EcA5hlUv17PvVbVC+C+MwIDAQABo3sweTAJBgNVHRMEAjAAMCwG
CWCGSAGG+EIBDQQfFh1PcGVuU1NMIEdlbmVyYXRlZCBDZXJ0aWZpY2F0ZTAdBgNV
HQ4EFgQUSybWvz4573Kx98pDujWBj60p6fMwHwYDVR0jBBgwFoAUjm46VvwFYbtX
f8ylIGovPoJHwFcwDQYJKoZIhvcNAQELBQADggEBAEBs6+4/Ft6/HGQoSA3U41F8
grDvuqjUfgLYn5KLGrnT9MwX9yKKkWRJta66AFU5ehShFX2Dk1Ml+zHJiBMgP4Xq
yrBWxTVjNSLPfsBSJYgb8WzBjRQHrRAkSBOix2VanDFzh8Ox8+fLWFPPkou0KGP+
d2ofr+JYfzJeSFtIS8yhH8id4Q7XjDVsM3FPpQF2+hOIglCz/3joJiIE0eCZQy7A
se52TVWwFSjhnZWfPlfIpw8yh+aMBjlN5bGqdUgtzWhmlAfWIPmBFVRcC0eDyD5h
VMhwEZ66y+Nsy6KAnO0L/Q2OevgxZlKzlCgAUbQXMZJrVxv/lAirVUWsS3RwKcM=
-----END CERTIFICATE-----
